target datalayout = "e-m:e-p270:32:32-p271:32:32-p272:64:64-i64:64-i128:128-f80:128-n8:16:32:64-S128"
target triple = "x86_64-pc-linux-gnu"

%struct.BOX = type { %struct.Point, %struct.Point }
%struct.Point = type { double, double }

; Function Attrs: inlinehint nounwind uwtable
define internal zeroext i1 @float8_lt(double noundef %0, double noundef %1) #2 {
  %3 = alloca double, align 8
  %4 = alloca double, align 8
  store double %0, ptr %3, align 8
  store double %1, ptr %4, align 8
  %5 = load double, ptr %3, align 8
  %6 = call i1 @llvm.is.fpclass.f64(double %5, i32 3)
  br i1 %6, label %16, label %7

7:                                                ; preds = %2
  %8 = load double, ptr %4, align 8
  %9 = call i1 @llvm.is.fpclass.f64(double %8, i32 3)
  br i1 %9, label %14, label %10

10:                                               ; preds = %7
  %11 = load double, ptr %3, align 8
  %12 = load double, ptr %4, align 8
  %13 = fcmp olt double %11, %12
  br label %14

14:                                               ; preds = %10, %7
  %15 = phi i1 [ true, %7 ], [ %13, %10 ]
  br label %16

16:                                               ; preds = %14, %2
  %17 = phi i1 [ false, %2 ], [ %15, %14 ]
  ret i1 %17
}

; Function Attrs: inlinehint nounwind uwtable
define internal zeroext i1 @float8_gt(double noundef %0, double noundef %1) #2 {
  %3 = alloca double, align 8
  %4 = alloca double, align 8
  store double %0, ptr %3, align 8
  store double %1, ptr %4, align 8
  %5 = load double, ptr %4, align 8
  %6 = call i1 @llvm.is.fpclass.f64(double %5, i32 3)
  br i1 %6, label %16, label %7

7:                                                ; preds = %2
  %8 = load double, ptr %3, align 8
  %9 = call i1 @llvm.is.fpclass.f64(double %8, i32 3)
  br i1 %9, label %14, label %10

10:                                               ; preds = %7
  %11 = load double, ptr %3, align 8
  %12 = load double, ptr %4, align 8
  %13 = fcmp ogt double %11, %12
  br label %14

14:                                               ; preds = %10, %7
  %15 = phi i1 [ true, %7 ], [ %13, %10 ]
  br label %16

16:                                               ; preds = %14, %2
  %17 = phi i1 [ false, %2 ], [ %15, %14 ]
  ret i1 %17
}

; Function Attrs: inlinehint nounwind uwtable
define internal double @float8_min(double noundef %0, double noundef %1) #2 {
  %3 = alloca double, align 8
  %4 = alloca double, align 8
  store double %0, ptr %3, align 8
  store double %1, ptr %4, align 8
  %5 = load double, ptr %3, align 8
  %6 = load double, ptr %4, align 8
  %7 = call zeroext i1 @float8_lt(double noundef %5, double noundef %6)
  br i1 %7, label %8, label %10

8:                                                ; preds = %2
  %9 = load double, ptr %3, align 8
  br label %12

10:                                               ; preds = %2
  %11 = load double, ptr %4, align 8
  br label %12

12:                                               ; preds = %10, %8
  %13 = phi double [ %9, %8 ], [ %11, %10 ]
  ret double %13
}

; Function Attrs: inlinehint nounwind uwtable
define internal double @float8_max(double noundef %0, double noundef %1) #2 {
  %3 = alloca double, align 8
  %4 = alloca double, align 8
  store double %0, ptr %3, align 8
  store double %1, ptr %4, align 8
  %5 = load double, ptr %3, align 8
  %6 = load double, ptr %4, align 8
  %7 = call zeroext i1 @float8_gt(double noundef %5, double noundef %6)
  br i1 %7, label %8, label %10

8:                                                ; preds = %2
  %9 = load double, ptr %3, align 8
  br label %12

10:                                               ; preds = %2
  %11 = load double, ptr %4, align 8
  br label %12

12:                                               ; preds = %10, %8
  %13 = phi double [ %9, %8 ], [ %11, %10 ]
  ret double %13
}

; Function Attrs: inlinehint nounwind uwtable
define internal double @float8_mi(double noundef %0, double noundef %1) #2 {
  %3 = alloca double, align 8
  %4 = alloca double, align 8
  %5 = alloca double, align 8
  store double %0, ptr %3, align 8
  store double %1, ptr %4, align 8
  call void @llvm.lifetime.start.p0(i64 8, ptr %5) #10
  %6 = load double, ptr %3, align 8
  %7 = load double, ptr %4, align 8
  %8 = fsub double %6, %7
  store double %8, ptr %5, align 8
  %9 = load double, ptr %5, align 8
  %10 = call i1 @llvm.is.fpclass.f64(double %9, i32 516)
  %11 = zext i1 %10 to i32
  %12 = icmp ne i32 %11, 0
  %13 = zext i1 %12 to i32
  %14 = sext i32 %13 to i64
  %15 = call i64 @llvm.expect.i64(i64 %14, i64 0)
  %16 = icmp ne i64 %15, 0
  br i1 %16, label %17, label %24

17:                                               ; preds = %2
  %18 = load double, ptr %3, align 8
  %19 = call i1 @llvm.is.fpclass.f64(double %18, i32 516)
  br i1 %19, label %24, label %20

20:                                               ; preds = %17
  %21 = load double, ptr %4, align 8
  %22 = call i1 @llvm.is.fpclass.f64(double %21, i32 516)
  br i1 %22, label %24, label %23

23:                                               ; preds = %20
  call void @float_overflow_error() #12
  unreachable

24:                                               ; preds = %20, %17, %2
  %25 = load double, ptr %5, align 8
  call void @llvm.lifetime.end.p0(i64 8, ptr %5) #10
  ret double %25
}

; Function Attrs: nounwind uwtable
define internal void @rt_box_union(ptr noundef %0, ptr noundef %1, ptr noundef %2) #0 {
  %4 = alloca ptr, align 8
  %5 = alloca ptr, align 8
  %6 = alloca ptr, align 8
  store ptr %0, ptr %4, align 8
  store ptr %1, ptr %5, align 8
  store ptr %2, ptr %6, align 8
  %7 = load ptr, ptr %5, align 8
  %8 = getelementptr inbounds nuw %struct.BOX, ptr %7, i32 0, i32 0
  %9 = getelementptr inbounds nuw %struct.Point, ptr %8, i32 0, i32 0
  %10 = load double, ptr %9, align 8
  %11 = load ptr, ptr %6, align 8
  %12 = getelementptr inbounds nuw %struct.BOX, ptr %11, i32 0, i32 0
  %13 = getelementptr inbounds nuw %struct.Point, ptr %12, i32 0, i32 0
  %14 = load double, ptr %13, align 8
  %15 = call double @float8_max(double noundef %10, double noundef %14)
  %16 = load ptr, ptr %4, align 8
  %17 = getelementptr inbounds nuw %struct.BOX, ptr %16, i32 0, i32 0
  %18 = getelementptr inbounds nuw %struct.Point, ptr %17, i32 0, i32 0
  store double %15, ptr %18, align 8
  %19 = load ptr, ptr %5, align 8
  %20 = getelementptr inbounds nuw %struct.BOX, ptr %19, i32 0, i32 0
  %21 = getelementptr inbounds nuw %struct.Point, ptr %20, i32 0, i32 1
  %22 = load double, ptr %21, align 8
  %23 = load ptr, ptr %6, align 8
  %24 = getelementptr inbounds nuw %struct.BOX, ptr %23, i32 0, i32 0
  %25 = getelementptr inbounds nuw %struct.Point, ptr %24, i32 0, i32 1
  %26 = load double, ptr %25, align 8
  %27 = call double @float8_max(double noundef %22, double noundef %26)
  %28 = load ptr, ptr %4, align 8
  %29 = getelementptr inbounds nuw %struct.BOX, ptr %28, i32 0, i32 0
  %30 = getelementptr inbounds nuw %struct.Point, ptr %29, i32 0, i32 1
  store double %27, ptr %30, align 8
  %31 = load ptr, ptr %5, align 8
  %32 = getelementptr inbounds nuw %struct.BOX, ptr %31, i32 0, i32 1
  %33 = getelementptr inbounds nuw %struct.Point, ptr %32, i32 0, i32 0
  %34 = load double, ptr %33, align 8
  %35 = load ptr, ptr %6, align 8
  %36 = getelementptr inbounds nuw %struct.BOX, ptr %35, i32 0, i32 1
  %37 = getelementptr inbounds nuw %struct.Point, ptr %36, i32 0, i32 0
  %38 = load double, ptr %37, align 8
  %39 = call double @float8_min(double noundef %34, double noundef %38)
  %40 = load ptr, ptr %4, align 8
  %41 = getelementptr inbounds nuw %struct.BOX, ptr %40, i32 0, i32 1
  %42 = getelementptr inbounds nuw %struct.Point, ptr %41, i32 0, i32 0
  store double %39, ptr %42, align 8
  %43 = load ptr, ptr %5, align 8
  %44 = getelementptr inbounds nuw %struct.BOX, ptr %43, i32 0, i32 1
  %45 = getelementptr inbounds nuw %struct.Point, ptr %44, i32 0, i32 1
  %46 = load double, ptr %45, align 8
  %47 = load ptr, ptr %6, align 8
  %48 = getelementptr inbounds nuw %struct.BOX, ptr %47, i32 0, i32 1
  %49 = getelementptr inbounds nuw %struct.Point, ptr %48, i32 0, i32 1
  %50 = load double, ptr %49, align 8
  %51 = call double @float8_min(double noundef %46, double noundef %50)
  %52 = load ptr, ptr %4, align 8
  %53 = getelementptr inbounds nuw %struct.BOX, ptr %52, i32 0, i32 1
  %54 = getelementptr inbounds nuw %struct.Point, ptr %53, i32 0, i32 1
  store double %51, ptr %54, align 8
  ret void
}

; Function Attrs: nounwind uwtable
define internal double @box_penalty(ptr noundef %0, ptr noundef %1) #0 {
  %3 = alloca ptr, align 8
  %4 = alloca ptr, align 8
  %5 = alloca %struct.BOX, align 8
  store ptr %0, ptr %3, align 8
  store ptr %1, ptr %4, align 8
  call void @llvm.lifetime.start.p0(i64 32, ptr %5) #10
  %6 = load ptr, ptr %3, align 8
  %7 = load ptr, ptr %4, align 8
  call void @rt_box_union(ptr noundef %5, ptr noundef %6, ptr noundef %7)
  %8 = call double @size_box(ptr noundef %5)
  %9 = load ptr, ptr %3, align 8
  %10 = call double @size_box(ptr noundef %9)
  %11 = call double @float8_mi(double noundef %8, double noundef %10)
  call void @llvm.lifetime.end.p0(i64 32, ptr %5) #10
  ret double %11
}