; Function Attrs: nounwind uwtable
define internal fastcc double @box_penalty(ptr noundef readonly captures(none) %0, ptr noundef readonly captures(none) %1) unnamed_addr #0 {
  %3 = alloca %struct.BOX, align 8
  call void @llvm.lifetime.start.p0(i64 32, ptr nonnull %3) #16
  %4 = load double, ptr %0, align 8
  %5 = load double, ptr %1, align 8
  %6 = fcmp uno double %5, 0.000000e+00
  br i1 %6, label %float8_max.exit.i, label %float8_gt.exit.i.i

float8_gt.exit.i.i:                               ; preds = %2
  %7 = fcmp uno double %4, 0.000000e+00
  %8 = fcmp ogt double %4, %5
  %9 = or i1 %7, %8
  br i1 %9, label %10, label %float8_max.exit.i

10:                                               ; preds = %float8_gt.exit.i.i
  br label %float8_max.exit.i

float8_max.exit.i:                                ; preds = %10, %float8_gt.exit.i.i, %2
  %11 = phi double [ %4, %10 ], [ %5, %float8_gt.exit.i.i ], [ %5, %2 ]
  store double %11, ptr %3, align 8
  %12 = getelementptr inbounds nuw i8, ptr %0, i64 8
  %13 = load double, ptr %12, align 8
  %14 = getelementptr inbounds nuw i8, ptr %1, i64 8
  %15 = load double, ptr %14, align 8
  %16 = fcmp uno double %15, 0.000000e+00
  br i1 %16, label %float8_max.exit13.i, label %float8_gt.exit.i12.i

float8_gt.exit.i12.i:                             ; preds = %float8_max.exit.i
  %17 = fcmp uno double %13, 0.000000e+00
  %18 = fcmp ogt double %13, %15
  %19 = or i1 %17, %18
  br i1 %19, label %20, label %float8_max.exit13.i

20:                                               ; preds = %float8_gt.exit.i12.i
  br label %float8_max.exit13.i

float8_max.exit13.i:                              ; preds = %20, %float8_gt.exit.i12.i, %float8_max.exit.i
  %21 = phi double [ %13, %20 ], [ %15, %float8_gt.exit.i12.i ], [ %15, %float8_max.exit.i ]
  %22 = getelementptr inbounds nuw i8, ptr %3, i64 8
  store double %21, ptr %22, align 8
  %23 = getelementptr inbounds nuw i8, ptr %0, i64 16
  %24 = load double, ptr %23, align 8
  %25 = getelementptr inbounds nuw i8, ptr %1, i64 16
  %26 = load double, ptr %25, align 8
  %27 = fcmp uno double %24, 0.000000e+00
  br i1 %27, label %float8_min.exit.i, label %float8_lt.exit.i.i

float8_lt.exit.i.i:                               ; preds = %float8_max.exit13.i
  %28 = fcmp uno double %26, 0.000000e+00
  %29 = fcmp olt double %24, %26
  %30 = or i1 %28, %29
  br i1 %30, label %31, label %float8_min.exit.i

31:                                               ; preds = %float8_lt.exit.i.i
  br label %float8_min.exit.i

float8_min.exit.i:                                ; preds = %31, %float8_lt.exit.i.i, %float8_max.exit13.i
  %32 = phi double [ %24, %31 ], [ %26, %float8_lt.exit.i.i ], [ %26, %float8_max.exit13.i ]
  %33 = getelementptr inbounds nuw i8, ptr %3, i64 16
  store double %32, ptr %33, align 8
  %34 = getelementptr inbounds nuw i8, ptr %0, i64 24
  %35 = load double, ptr %34, align 8
  %36 = getelementptr inbounds nuw i8, ptr %1, i64 24
  %37 = load double, ptr %36, align 8
  %38 = fcmp uno double %35, 0.000000e+00
  br i1 %38, label %rt_box_union.exit, label %float8_lt.exit.i14.i

float8_lt.exit.i14.i:                             ; preds = %float8_min.exit.i
  %39 = fcmp uno double %37, 0.000000e+00
  %40 = fcmp olt double %35, %37
  %41 = or i1 %39, %40
  br i1 %41, label %42, label %rt_box_union.exit

42:                                               ; preds = %float8_lt.exit.i14.i
  br label %rt_box_union.exit

rt_box_union.exit:                                ; preds = %float8_min.exit.i, %float8_lt.exit.i14.i, %42
  %43 = phi double [ %35, %42 ], [ %37, %float8_lt.exit.i14.i ], [ %37, %float8_min.exit.i ]
  %44 = getelementptr inbounds nuw i8, ptr %3, i64 24
  store double %43, ptr %44, align 8
  %45 = call fastcc double @size_box(ptr noundef nonnull %3)
  %46 = tail call fastcc double @size_box(ptr noundef nonnull %0)
  %47 = fsub double %45, %46
  %48 = tail call double @llvm.fabs.f64(double %47)
  %49 = fcmp oeq double %48, 0x7FF0000000000000
  br i1 %49, label %50, label %float8_mi.exit, !prof !6

50:                                               ; preds = %rt_box_union.exit
  %51 = tail call double @llvm.fabs.f64(double %45)
  %52 = fcmp oeq double %51, 0x7FF0000000000000
  %53 = tail call double @llvm.fabs.f64(double %46)
  %54 = fcmp oeq double %53, 0x7FF0000000000000
  %or.cond.i = or i1 %52, %54
  br i1 %or.cond.i, label %float8_mi.exit, label %55

55:                                               ; preds = %50
  tail call void @float_overflow_error() #17
  unreachable

float8_mi.exit:                                   ; preds = %rt_box_union.exit, %50
  call void @llvm.lifetime.end.p0(i64 32, ptr nonnull %3) #16
  ret double %47
}